; Function Attrs: nounwind uwtable
define range(i32 -48, 1) i32 @ARKodeSetMassEpsLin(ptr noundef %0, double noundef %1) local_unnamed_addr #0 {
  %3 = icmp eq ptr %0, null
  br i1 %3, label %4, label %5

4:                                                ; preds = %2
  tail call void (ptr, i32, i32, ptr, ptr, ptr, ...) @arkProcessError(ptr noundef null, i32 noundef -21, i32 noundef 1615, ptr noundef nonnull @__func__.ARKodeSetMassEpsLin, ptr noundef nonnull @.str, ptr noundef nonnull @.str.1) #13
  br label %18

5:                                                ; preds = %2
  %6 = getelementptr inbounds nuw i8, ptr %0, i64 512
  %7 = load i32, ptr %6, align 8, !tbaa !105
  %.not = icmp eq i32 %7, 0
  br i1 %.not, label %8, label %9

8:                                                ; preds = %5
  tail call void (ptr, i32, i32, ptr, ptr, ptr, ...) @arkProcessError(ptr noundef nonnull %0, i32 noundef -48, i32 noundef 1624, ptr noundef nonnull @__func__.ARKodeSetMassEpsLin, ptr noundef nonnull @.str, ptr noundef nonnull @.str.16) #13
  br label %18

9:                                                ; preds = %5
  %10 = getelementptr inbounds nuw i8, ptr %0, i64 536
  %11 = load ptr, ptr %10, align 8, !tbaa !75
  %12 = tail call ptr %11(ptr noundef nonnull %0) #13
  %13 = icmp eq ptr %12, null
  br i1 %13, label %arkLs_AccessMassMem.exit, label %14

arkLs_AccessMassMem.exit:                         ; preds = %9
  tail call void (ptr, i32, i32, ptr, ptr, ptr, ...) @arkProcessError(ptr noundef nonnull %0, i32 noundef -6, i32 noundef 4109, ptr noundef nonnull @__func__.ARKodeSetMassEpsLin, ptr noundef nonnull @.str, ptr noundef nonnull @.str.65) #13
  br label %18

14:                                               ; preds = %9
  %15 = fcmp ole double %1, 0.000000e+00
  %16 = select i1 %15, double 5.000000e-02, double %1
  %17 = getelementptr inbounds nuw i8, ptr %12, i64 40
  store double %16, ptr %17, align 8, !tbaa !112
  br label %18

18:                                               ; preds = %arkLs_AccessMassMem.exit, %14, %8, %4
  %.0 = phi i32 [ -21, %4 ], [ 0, %14 ], [ -48, %8 ], [ -6, %arkLs_AccessMassMem.exit ]
  ret i32 %.0
}